; Function Attrs: nounwind uwtable
define dso_local range(i64 0, 2) i64 @has_language_privilege_id_name(ptr noundef readonly captures(none) %0) local_unnamed_addr #0 {
  %2 = getelementptr inbounds nuw i8, ptr %0, i64 32
  %3 = load i64, ptr %2, align 8
  %4 = trunc i64 %3 to i32
  %5 = getelementptr inbounds nuw i8, ptr %0, i64 48
  %6 = load i64, ptr %5, align 8
  %7 = inttoptr i64 %6 to ptr
  %8 = tail call ptr @pg_detoast_datum_packed(ptr noundef %7) #14
  %9 = getelementptr inbounds nuw i8, ptr %0, i64 64
  %10 = load i64, ptr %9, align 8
  %11 = inttoptr i64 %10 to ptr
  %12 = tail call ptr @pg_detoast_datum_packed(ptr noundef %11) #14
  %13 = tail call ptr @text_to_cstring(ptr noundef %8) #14
  %14 = tail call i32 @get_language_oid(ptr noundef %13, i1 noundef zeroext false) #14
  %15 = tail call fastcc i64 @convert_any_priv_string(ptr noundef %12, ptr noundef nonnull @convert_language_priv_string.language_priv_map)
  %16 = tail call i32 @object_aclcheck(i32 noundef 2612, i32 noundef %14, i32 noundef %4, i64 noundef %15) #14
  %17 = icmp eq i32 %16, 0
  %18 = zext i1 %17 to i64
  ret i64 %18
}